; Function Attrs: nounwind uwtable
define ptr @l_Array_mapMUnsafe_map___at_Lean_Elab_WF_GuessLex_formatTable___spec__1(i64 noundef %0, i64 noundef %1, ptr noundef %2) local_unnamed_addr #1 {
  %.not33 = icmp ult i64 %1, %0
  br i1 %.not33, label %.lr.ph, label %._crit_edge

.lr.ph:                                           ; preds = %3, %35
  %.01535 = phi i64 [ %19, %35 ], [ %1, %3 ]
  %.01734 = phi ptr [ %.0.i.i22, %35 ], [ %2, %3 ]
  %.val.i.i = load i32, ptr %.01734, align 4, !tbaa !8
  %4 = icmp eq i32 %.val.i.i, 1
  br i1 %4, label %lean_ensure_exclusive_array.exit.i, label %5

5:                                                ; preds = %.lr.ph
  %6 = tail call ptr @lean_copy_expand_array(ptr noundef nonnull %.01734, i1 noundef zeroext false) #8
  br label %lean_ensure_exclusive_array.exit.i

lean_ensure_exclusive_array.exit.i:               ; preds = %5, %.lr.ph
  %.0.i.i = phi ptr [ %6, %5 ], [ %.01734, %.lr.ph ]
  %7 = getelementptr inbounds nuw i8, ptr %.0.i.i, i64 24
  %8 = getelementptr inbounds nuw ptr, ptr %7, i64 %.01535
  %9 = load ptr, ptr %8, align 8, !tbaa !4
  %10 = ptrtoint ptr %9 to i64
  %11 = and i64 %10, 1
  %.not.i = icmp eq i64 %11, 0
  br i1 %.not.i, label %12, label %lean_array_uset.exit

12:                                               ; preds = %lean_ensure_exclusive_array.exit.i
  %13 = load i32, ptr %9, align 4, !tbaa !8
  %14 = icmp sgt i32 %13, 1
  br i1 %14, label %15, label %17, !prof !11

15:                                               ; preds = %12
  %16 = add nsw i32 %13, -1
  store i32 %16, ptr %9, align 4, !tbaa !8
  br label %lean_array_uset.exit

17:                                               ; preds = %12
  %.not.i.i = icmp eq i32 %13, 0
  br i1 %.not.i.i, label %lean_array_uset.exit, label %18

18:                                               ; preds = %17
  tail call void @lean_dec_ref_cold(ptr noundef nonnull %9) #8
  br label %lean_array_uset.exit

lean_array_uset.exit:                             ; preds = %lean_ensure_exclusive_array.exit.i, %15, %17, %18
  store ptr inttoptr (i64 1 to ptr), ptr %8, align 8, !tbaa !4
  %19 = add nuw i64 %.01535, 1
  %.val.i.i20 = load i32, ptr %.0.i.i, align 4, !tbaa !8
  %20 = icmp eq i32 %.val.i.i20, 1
  br i1 %20, label %lean_ensure_exclusive_array.exit.i21, label %21

21:                                               ; preds = %lean_array_uset.exit
  %22 = tail call ptr @lean_copy_expand_array(ptr noundef nonnull %.0.i.i, i1 noundef zeroext false) #8
  %.phi.trans.insert = getelementptr inbounds nuw i8, ptr %22, i64 24
  %.phi.trans.insert36 = getelementptr inbounds nuw ptr, ptr %.phi.trans.insert, i64 %.01535
  %.pre = load ptr, ptr %.phi.trans.insert36, align 8, !tbaa !4
  br label %lean_ensure_exclusive_array.exit.i21

lean_ensure_exclusive_array.exit.i21:             ; preds = %21, %lean_array_uset.exit
  %23 = phi ptr [ %.pre, %21 ], [ inttoptr (i64 1 to ptr), %lean_array_uset.exit ]
  %.0.i.i22 = phi ptr [ %22, %21 ], [ %.0.i.i, %lean_array_uset.exit ]
  %24 = getelementptr inbounds nuw i8, ptr %.0.i.i22, i64 24
  %25 = getelementptr inbounds nuw ptr, ptr %24, i64 %.01535
  %26 = ptrtoint ptr %23 to i64
  %27 = and i64 %26, 1
  %.not.i23 = icmp eq i64 %27, 0
  br i1 %.not.i23, label %28, label %35

28:                                               ; preds = %lean_ensure_exclusive_array.exit.i21
  %29 = load i32, ptr %23, align 4, !tbaa !8
  %30 = icmp sgt i32 %29, 1
  br i1 %30, label %31, label %33, !prof !11

31:                                               ; preds = %28
  %32 = add nsw i32 %29, -1
  store i32 %32, ptr %23, align 4, !tbaa !8
  br label %35

33:                                               ; preds = %28
  %.not.i.i24 = icmp eq i32 %29, 0
  br i1 %.not.i.i24, label %35, label %34

34:                                               ; preds = %33
  tail call void @lean_dec_ref_cold(ptr noundef nonnull %23) #8
  br label %35

35:                                               ; preds = %34, %33, %31, %lean_ensure_exclusive_array.exit.i21
  store ptr inttoptr (i64 1 to ptr), ptr %25, align 8, !tbaa !4
  %exitcond.not = icmp eq i64 %19, %0
  br i1 %exitcond.not, label %._crit_edge, label %.lr.ph

._crit_edge:                                      ; preds = %35, %3
  %.017.lcssa = phi ptr [ %2, %3 ], [ %.0.i.i22, %35 ]
  ret ptr %.017.lcssa
}